target datalayout = "e-m:e-p270:32:32-p271:32:32-p272:64:64-i64:64-i128:128-f80:128-n8:16:32:64-S128"
target triple = "x86_64-pc-linux-gnu"

%class.svector = type { %class.vector.22 }
%class.vector.22 = type { ptr }
%"class.datalog::relation_signature" = type { %"class.datalog::tr_infrastructure<datalog::relation_traits>::signature_base" }
%"class.datalog::tr_infrastructure<datalog::relation_traits>::signature_base" = type { %class.ptr_vector.31 }
%class.ptr_vector.31 = type { %class.vector.32 }
%class.vector.32 = type { ptr }
%"class.datalog::product_relation" = type { %"class.datalog::relation_base.base", i8, %class.ptr_vector.33, %"struct.datalog::rel_spec" }
%"class.datalog::relation_base.base" = type { %"class.datalog::tr_infrastructure<datalog::relation_traits>::base_ancestor.base" }
%"class.datalog::tr_infrastructure<datalog::relation_traits>::base_ancestor.base" = type <{ ptr, ptr, %"class.datalog::relation_signature", i32 }>
%class.ptr_vector.33 = type { %class.vector.34 }
%class.vector.34 = type { ptr }
%"struct.datalog::rel_spec" = type { %class.svector }

@.str = private unnamed_addr constant [119 x i8] c"generated/home/dtcxzyw/WorkSpace/Projects/compilers/llvm-opt-benchmark/bench/z3/z3/src/muz/rel/dl_product_relation.cpp\00", align 1
@.str.1 = private unnamed_addr constant [29 x i8] c"UNEXPECTED CODE WAS REACHED.\00", align 1

; Function Attrs: mustprogress nounwind uwtable
define linkonce_odr hidden noundef zeroext i1 @_ZNK6vectorIPN7datalog13relation_baseELb0EjE5emptyEv(ptr noundef nonnull align 8 dereferenceable(8) %0) #6 comdat align 2 {
  %2 = alloca ptr, align 8
  store ptr %0, ptr %2, align 8, !tbaa !86
  %3 = load ptr, ptr %2, align 8
  %4 = getelementptr inbounds nuw %class.vector.34, ptr %3, i32 0, i32 0
  %5 = load ptr, ptr %4, align 8, !tbaa !90
  %6 = icmp eq ptr %5, null
  br i1 %6, label %13, label %7

7:                                                ; preds = %1
  %8 = getelementptr inbounds nuw %class.vector.34, ptr %3, i32 0, i32 0
  %9 = load ptr, ptr %8, align 8, !tbaa !90
  %10 = getelementptr inbounds i32, ptr %9, i64 -1
  %11 = load i32, ptr %10, align 4, !tbaa !26
  %12 = icmp eq i32 %11, 0
  br label %13

13:                                               ; preds = %7, %1
  %14 = phi i1 [ true, %1 ], [ %12, %7 ]
  ret i1 %14
}

; Function Attrs: mustprogress uwtable
define hidden noundef ptr @_ZNK7datalog16product_relation10complementEP9func_decl(ptr noundef nonnull align 8 dereferenceable(48) %0, ptr noundef %1) unnamed_addr #4 align 2 {
  %3 = alloca ptr, align 8
  %4 = alloca ptr, align 8
  %5 = alloca ptr, align 8
  %6 = alloca ptr, align 8
  store ptr %0, ptr %4, align 8, !tbaa !48
  store ptr %1, ptr %5, align 8, !tbaa !93
  %7 = load ptr, ptr %4, align 8
  %8 = getelementptr inbounds nuw %"class.datalog::product_relation", ptr %7, i32 0, i32 2
  %9 = call noundef zeroext i1 @_ZNK6vectorIPN7datalog13relation_baseELb0EjE5emptyEv(ptr noundef nonnull align 8 dereferenceable(8) %8)
  br i1 %9, label %10, label %23

10:                                               ; preds = %2
  call void @llvm.lifetime.start.p0(i64 8, ptr %6) #3
  %11 = load ptr, ptr %7, align 8, !tbaa !12
  %12 = getelementptr inbounds ptr, ptr %11, i64 9
  %13 = load ptr, ptr %12, align 8
  %14 = call noundef ptr %13(ptr noundef nonnull align 8 dereferenceable(48) %7)
  store ptr %14, ptr %6, align 8, !tbaa !48
  %15 = getelementptr inbounds nuw %"class.datalog::product_relation", ptr %7, i32 0, i32 1
  %16 = load i8, ptr %15, align 4, !tbaa !95, !range !122, !noundef !123
  %17 = trunc i8 %16 to i1
  %18 = xor i1 %17, true
  %19 = load ptr, ptr %6, align 8, !tbaa !48
  %20 = getelementptr inbounds nuw %"class.datalog::product_relation", ptr %19, i32 0, i32 1
  %21 = zext i1 %18 to i8
  store i8 %21, ptr %20, align 4, !tbaa !95
  %22 = load ptr, ptr %6, align 8, !tbaa !48
  store ptr %22, ptr %3, align 8
  call void @llvm.lifetime.end.p0(i64 8, ptr %6) #3
  br label %24

23:                                               ; preds = %2
  call void @_Z26notify_assertion_violationPKciS0_(ptr noundef @.str, i32 noundef 1099, ptr noundef @.str.1)
  call void @_Z18invoke_exit_actionj(i32 noundef 114)
  store ptr null, ptr %3, align 8
  br label %24

24:                                               ; preds = %23, %10
  %25 = load ptr, ptr %3, align 8
  ret ptr %25
}