; Function Attrs: mustprogress uwtable
define hidden noundef ptr @_ZNK7datalog16product_relation10complementEP9func_decl(ptr noundef nonnull align 8 dereferenceable(48) %0, ptr readnone captures(none) %1) unnamed_addr #3 align 2 {
  %3 = getelementptr inbounds nuw i8, ptr %0, i64 32
  %4 = load ptr, ptr %3, align 8, !tbaa !89
  %5 = icmp eq ptr %4, null
  br i1 %5, label %_ZNK6vectorIPN7datalog13relation_baseELb0EjE5emptyEv.exit.thread, label %_ZNK6vectorIPN7datalog13relation_baseELb0EjE5emptyEv.exit

_ZNK6vectorIPN7datalog13relation_baseELb0EjE5emptyEv.exit: ; preds = %2
  %6 = getelementptr inbounds i8, ptr %4, i64 -4
  %7 = load i32, ptr %6, align 4, !tbaa !39
  %8 = icmp eq i32 %7, 0
  br i1 %8, label %_ZNK6vectorIPN7datalog13relation_baseELb0EjE5emptyEv.exit.thread, label %17

_ZNK6vectorIPN7datalog13relation_baseELb0EjE5emptyEv.exit.thread: ; preds = %2, %_ZNK6vectorIPN7datalog13relation_baseELb0EjE5emptyEv.exit
  %9 = load ptr, ptr %0, align 8, !tbaa !17
  %10 = getelementptr inbounds nuw i8, ptr %9, i64 72
  %11 = load ptr, ptr %10, align 8
  %12 = tail call noundef ptr %11(ptr noundef nonnull align 8 dereferenceable(48) %0)
  %13 = getelementptr inbounds nuw i8, ptr %0, i64 28
  %14 = load i8, ptr %13, align 4, !tbaa !114, !range !174, !noundef !175
  %15 = xor i8 %14, 1
  %16 = getelementptr inbounds nuw i8, ptr %12, i64 28
  store i8 %15, ptr %16, align 4, !tbaa !114
  br label %18

17:                                               ; preds = %_ZNK6vectorIPN7datalog13relation_baseELb0EjE5emptyEv.exit
  tail call void @_Z26notify_assertion_violationPKciS0_(ptr noundef nonnull @.str, i32 noundef 1099, ptr noundef nonnull @.str.1)
  tail call void @_Z18invoke_exit_actionj(i32 noundef 114)
  br label %18

18:                                               ; preds = %17, %_ZNK6vectorIPN7datalog13relation_baseELb0EjE5emptyEv.exit.thread
  %.0 = phi ptr [ %12, %_ZNK6vectorIPN7datalog13relation_baseELb0EjE5emptyEv.exit.thread ], [ null, %17 ]
  ret ptr %.0
}